target datalayout = "e-m:e-p270:32:32-p271:32:32-p272:64:64-i64:64-i128:128-f80:128-n8:16:32:64-S128"
target triple = "x86_64-pc-linux-gnu"

@.str.146 = private unnamed_addr constant [6 x i8] c"hwloc\00", align 1
@.str.147 = private unnamed_addr constant [5 x i8] c"list\00", align 1
@.str.148 = private unnamed_addr constant [17 x i8] c"systemd-dbus-api\00", align 1
@.str.149 = private unnamed_addr constant [8 x i8] c"taskset\00", align 1

; Function Attrs: inlinehint nounwind uwtable
define internal i32 @hwloc_utils_parse_cpuset_format(ptr noundef %0) #2 {
  %2 = alloca i32, align 4
  %3 = alloca ptr, align 8
  store ptr %0, ptr %3, align 8, !tbaa !4
  %4 = load ptr, ptr %3, align 8, !tbaa !4
  %5 = call i32 @strcmp(ptr noundef %4, ptr noundef @.str.146) #12
  %6 = icmp ne i32 %5, 0
  br i1 %6, label %8, label %7

7:                                                ; preds = %1
  store i32 1, ptr %2, align 4
  br label %24

8:                                                ; preds = %1
  %9 = load ptr, ptr %3, align 8, !tbaa !4
  %10 = call i32 @strcmp(ptr noundef %9, ptr noundef @.str.147) #12
  %11 = icmp ne i32 %10, 0
  br i1 %11, label %13, label %12

12:                                               ; preds = %8
  store i32 2, ptr %2, align 4
  br label %24

13:                                               ; preds = %8
  %14 = load ptr, ptr %3, align 8, !tbaa !4
  %15 = call i32 @strcmp(ptr noundef %14, ptr noundef @.str.148) #12
  %16 = icmp ne i32 %15, 0
  br i1 %16, label %18, label %17

17:                                               ; preds = %13
  store i32 3, ptr %2, align 4
  br label %24

18:                                               ; preds = %13
  %19 = load ptr, ptr %3, align 8, !tbaa !4
  %20 = call i32 @strcmp(ptr noundef %19, ptr noundef @.str.149) #12
  %21 = icmp ne i32 %20, 0
  br i1 %21, label %23, label %22

22:                                               ; preds = %18
  store i32 4, ptr %2, align 4
  br label %24

23:                                               ; preds = %18
  store i32 0, ptr %2, align 4
  br label %24

24:                                               ; preds = %23, %22, %17, %12, %7
  %25 = load i32, ptr %2, align 4
  ret i32 %25
}