; Function Attrs: inlinehint mustprogress nofree nounwind willreturn memory(argmem: read) uwtable
define internal fastcc range(i32 0, 5) i32 @hwloc_utils_parse_cpuset_format(ptr noundef readonly captures(none) %0) unnamed_addr #12 {
  %2 = tail call i32 @strcmp(ptr noundef nonnull dereferenceable(1) %0, ptr noundef nonnull dereferenceable(6) @.str.146) #26
  %.not = icmp eq i32 %2, 0
  br i1 %.not, label %9, label %3

3:                                                ; preds = %1
  %4 = tail call i32 @strcmp(ptr noundef nonnull dereferenceable(1) %0, ptr noundef nonnull dereferenceable(5) @.str.147) #26
  %.not4 = icmp eq i32 %4, 0
  br i1 %.not4, label %9, label %5

5:                                                ; preds = %3
  %6 = tail call i32 @strcmp(ptr noundef nonnull dereferenceable(1) %0, ptr noundef nonnull dereferenceable(17) @.str.148) #26
  %.not5 = icmp eq i32 %6, 0
  br i1 %.not5, label %9, label %7

7:                                                ; preds = %5
  %8 = tail call i32 @strcmp(ptr noundef nonnull dereferenceable(1) %0, ptr noundef nonnull dereferenceable(8) @.str.149) #26
  %.not6 = icmp eq i32 %8, 0
  %. = select i1 %.not6, i32 4, i32 0
  br label %9

9:                                                ; preds = %7, %5, %3, %1
  %.0 = phi i32 [ 1, %1 ], [ 2, %3 ], [ 3, %5 ], [ %., %7 ]
  ret i32 %.0
}